; Function Attrs: mustprogress uwtable
define internal void @"_ZNSt6thread11_State_implINS_8_InvokerISt5tupleIJZN23Barrier_SanityTest_Test8TestBodyEvE3$_0EEEEE6_M_runEv"(ptr nocapture noundef nonnull readonly align 8 dereferenceable(32) %this) unnamed_addr #3 align 2 personality ptr @__gxx_personality_v0 {
entry:
  %_M_func = getelementptr inbounds i8, ptr %this, i64 8
  %0 = load ptr, ptr %_M_func, align 8
  %1 = load ptr, ptr %0, align 8
  %call.i.i.i.i.i = tail call noundef zeroext i1 @_ZN4absl7Barrier5BlockEv(ptr noundef nonnull align 8 dereferenceable(16) %1)
  br i1 %call.i.i.i.i.i, label %if.then.i.i.i.i.i, label %if.end.i.i.i.i.i

if.then.i.i.i.i.i:                                ; preds = %entry
  %2 = load ptr, ptr %_M_func, align 8
  %3 = load ptr, ptr %2, align 8
  %isnull.i.i.i.i.i = icmp eq ptr %3, null
  br i1 %isnull.i.i.i.i.i, label %if.end.i.i.i.i.i, label %delete.notnull.i.i.i.i.i

delete.notnull.i.i.i.i.i:                         ; preds = %if.then.i.i.i.i.i
  tail call void @_ZdlPv(ptr noundef nonnull %3) #18
  br label %if.end.i.i.i.i.i

if.end.i.i.i.i.i:                                 ; preds = %delete.notnull.i.i.i.i.i, %if.then.i.i.i.i.i, %entry
  %4 = getelementptr inbounds i8, ptr %this, i64 16
  %5 = load ptr, ptr %4, align 8
  tail call void @_ZN4absl5Mutex4LockEv(ptr noundef nonnull align 8 dereferenceable(8) %5)
  %6 = getelementptr inbounds i8, ptr %this, i64 24
  %7 = load ptr, ptr %6, align 8
  %8 = load i32, ptr %7, align 4
  %inc.i.i.i.i.i = add nsw i32 %8, 1
  store i32 %inc.i.i.i.i.i, ptr %7, align 4
  invoke void @_ZN4absl5Mutex6UnlockEv(ptr noundef nonnull align 8 dereferenceable(8) %5)
          to label %"_ZNSt6thread8_InvokerISt5tupleIJZN23Barrier_SanityTest_Test8TestBodyEvE3$_0EEEclEv.exit" unwind label %terminate.lpad.i.i.i.i.i.i

terminate.lpad.i.i.i.i.i.i:                       ; preds = %if.end.i.i.i.i.i
  %9 = landingpad { ptr, i32 }
          catch ptr null
  %10 = extractvalue { ptr, i32 } %9, 0
  tail call void @__clang_call_terminate(ptr %10) #19
  unreachable

"_ZNSt6thread8_InvokerISt5tupleIJZN23Barrier_SanityTest_Test8TestBodyEvE3$_0EEEclEv.exit": ; preds = %if.end.i.i.i.i.i
  ret void
}